; Function Attrs: nounwind uwtable
define noundef i32 @b2Chain_GetSegments(i64 %0, ptr noundef writeonly captures(none) %1, i32 noundef %2) local_unnamed_addr #0 {
  %.sroa.216.0.extract.shift = lshr i64 %0, 32
  %.sroa.216.0.extract.trunc = trunc i64 %.sroa.216.0.extract.shift to i16
  %4 = trunc nuw i64 %.sroa.216.0.extract.shift to i32
  %5 = and i32 %4, 65535
  %6 = tail call ptr @b2GetWorldLocked(i32 noundef %5) #10
  %7 = icmp eq ptr %6, null
  br i1 %7, label %.loopexit, label %8

8:                                                ; preds = %3
  %9 = getelementptr i8, ptr %6, i64 1272
  %.val22 = load ptr, ptr %9, align 8, !tbaa !10
  %10 = shl i64 %0, 32
  %sext.i = add i64 %10, -4294967296
  %11 = ashr exact i64 %sext.i, 32
  %12 = getelementptr inbounds %struct.b2ChainShape, ptr %.val22, i64 %11
  %13 = getelementptr inbounds nuw i8, ptr %12, i64 12
  %14 = load i32, ptr %13, align 4, !tbaa !143
  %15 = tail call noundef i32 @llvm.smin.i32(i32 %14, i32 %2)
  %16 = icmp sgt i32 %15, 0
  br i1 %16, label %.lr.ph, label %.loopexit

.lr.ph:                                           ; preds = %8
  %17 = getelementptr inbounds nuw i8, ptr %12, i64 24
  %18 = load ptr, ptr %17, align 8, !tbaa !144
  %19 = getelementptr inbounds nuw i8, ptr %6, i64 1256
  %.val = load ptr, ptr %19, align 8, !tbaa !14
  %wide.trip.count = zext nneg i32 %15 to i64
  br label %20

20:                                               ; preds = %.lr.ph, %20
  %indvars.iv = phi i64 [ 0, %.lr.ph ], [ %indvars.iv.next, %20 ]
  %21 = getelementptr inbounds nuw i32, ptr %18, i64 %indvars.iv
  %22 = load i32, ptr %21, align 4, !tbaa !66
  %23 = sext i32 %22 to i64
  %24 = getelementptr inbounds nuw %struct.b2ShapeId, ptr %1, i64 %indvars.iv
  %25 = add nsw i32 %22, 1
  %26 = getelementptr inbounds %struct.b2Shape, ptr %.val, i64 %23, i32 20
  %27 = load i16, ptr %26, align 4, !tbaa !28
  store i32 %25, ptr %24, align 4, !tbaa !66
  %.sroa.2.0..sroa_idx = getelementptr inbounds nuw i8, ptr %24, i64 4
  store i16 %.sroa.216.0.extract.trunc, ptr %.sroa.2.0..sroa_idx, align 4, !tbaa !195
  %.sroa.3.0..sroa_idx = getelementptr inbounds nuw i8, ptr %24, i64 6
  store i16 %27, ptr %.sroa.3.0..sroa_idx, align 2, !tbaa !195
  %indvars.iv.next = add nuw nsw i64 %indvars.iv, 1
  %exitcond.not = icmp eq i64 %indvars.iv.next, %wide.trip.count
  br i1 %exitcond.not, label %.loopexit, label %20, !llvm.loop !196

.loopexit:                                        ; preds = %20, %8, %3
  %.0 = phi i32 [ 0, %3 ], [ %15, %8 ], [ %15, %20 ]
  ret i32 %.0
}